; Function Attrs: mustprogress uwtable
define dso_local noundef i32 @removeText(ptr noundef %source, i32 noundef %srcLen, ptr noundef %patString, i32 noundef %options, ptr noundef %replaceText, ptr noundef %status) local_unnamed_addr #0 personality ptr @__gxx_personality_v0 {
entry:
  %src = alloca %"class.icu_75::UnicodeString", align 8
  %myMatcher = alloca %"class.icu_75::RegexMatcher", align 8
  %dest = alloca %"class.icu_75::UnicodeString", align 8
  %ref.tmp = alloca %"class.icu_75::UnicodeString", align 8
  %agg.tmp = alloca %"class.icu_75::Char16Ptr", align 8
  %cmp = icmp eq ptr %status, null
  br i1 %cmp, label %return, label %lor.lhs.false

lor.lhs.false:                                    ; preds = %entry
  %0 = load i32, ptr %status, align 4
  %cmp.i = icmp slt i32 %0, 1
  br i1 %cmp.i, label %if.end, label %return

if.end:                                           ; preds = %lor.lhs.false
  call void @_ZN6icu_7513UnicodeStringC1EPKDsi(ptr noundef nonnull align 8 dereferenceable(64) %src, ptr noundef %source, i32 noundef %srcLen)
  invoke void @_ZN6icu_7512RegexMatcherC1ERKNS_13UnicodeStringES3_jR10UErrorCode(ptr noundef nonnull align 8 dereferenceable(336) %myMatcher, ptr noundef nonnull align 8 dereferenceable(64) %patString, ptr noundef nonnull align 8 dereferenceable(64) %src, i32 noundef %options, ptr noundef nonnull align 4 dereferenceable(4) %status)
          to label %invoke.cont unwind label %lpad

invoke.cont:                                      ; preds = %if.end
  %1 = load i32, ptr %status, align 4
  %cmp.i11 = icmp slt i32 %1, 1
  br i1 %cmp.i11, label %invoke.cont7, label %cleanup

lpad:                                             ; preds = %if.end
  %2 = landingpad { ptr, i32 }
          cleanup
  br label %ehcleanup17

invoke.cont7:                                     ; preds = %invoke.cont
  store ptr getelementptr inbounds ({ [13 x ptr] }, ptr @_ZTVN6icu_7513UnicodeStringE, i64 0, i32 0, i64 2), ptr %dest, align 8
  %fUnion2.i = getelementptr inbounds i8, ptr %dest, i64 8
  store i16 2, ptr %fUnion2.i, align 8
  invoke void @_ZN6icu_7512RegexMatcher10replaceAllERKNS_13UnicodeStringER10UErrorCode(ptr nonnull sret(%"class.icu_75::UnicodeString") align 8 %ref.tmp, ptr noundef nonnull align 8 dereferenceable(336) %myMatcher, ptr noundef nonnull align 8 dereferenceable(64) %replaceText, ptr noundef nonnull align 4 dereferenceable(4) %status)
          to label %invoke.cont9 unwind label %lpad8

invoke.cont9:                                     ; preds = %invoke.cont7
  %call10 = call noundef nonnull align 8 dereferenceable(64) ptr @_ZN6icu_7513UnicodeStringaSEOS0_(ptr noundef nonnull align 8 dereferenceable(64) %dest, ptr noundef nonnull align 8 dereferenceable(64) %ref.tmp) #5
  call void @_ZN6icu_7513UnicodeStringD1Ev(ptr noundef nonnull align 8 dereferenceable(64) %ref.tmp) #5
  store ptr %source, ptr %agg.tmp, align 8
  %call14 = invoke noundef i32 @_ZNK6icu_7513UnicodeString7extractENS_9Char16PtrEiR10UErrorCode(ptr noundef nonnull align 8 dereferenceable(64) %dest, ptr noundef nonnull %agg.tmp, i32 noundef %srcLen, ptr noundef nonnull align 4 dereferenceable(4) %status)
          to label %invoke.cont13 unwind label %lpad12

invoke.cont13:                                    ; preds = %invoke.cont9
  %3 = load ptr, ptr %agg.tmp, align 8
  call void asm sideeffect "", "rm,~{memory},~{dirflag},~{fpsr},~{flags}"(ptr %3) #5, !srcloc !5
  call void @_ZN6icu_7513UnicodeStringD1Ev(ptr noundef nonnull align 8 dereferenceable(64) %dest) #5
  br label %cleanup

lpad8:                                            ; preds = %invoke.cont7
  %4 = landingpad { ptr, i32 }
          cleanup
  br label %ehcleanup

lpad12:                                           ; preds = %invoke.cont9
  %5 = landingpad { ptr, i32 }
          cleanup
  %6 = load ptr, ptr %agg.tmp, align 8
  call void asm sideeffect "", "rm,~{memory},~{dirflag},~{fpsr},~{flags}"(ptr %6) #5, !srcloc !5
  br label %ehcleanup

ehcleanup:                                        ; preds = %lpad12, %lpad8
  %.pn = phi { ptr, i32 } [ %5, %lpad12 ], [ %4, %lpad8 ]
  call void @_ZN6icu_7513UnicodeStringD1Ev(ptr noundef nonnull align 8 dereferenceable(64) %dest) #5
  call void @_ZN6icu_7512RegexMatcherD1Ev(ptr noundef nonnull align 8 dereferenceable(336) %myMatcher) #5
  br label %ehcleanup17

cleanup:                                          ; preds = %invoke.cont, %invoke.cont13
  %retval.0 = phi i32 [ %call14, %invoke.cont13 ], [ 0, %invoke.cont ]
  call void @_ZN6icu_7512RegexMatcherD1Ev(ptr noundef nonnull align 8 dereferenceable(336) %myMatcher) #5
  call void @_ZN6icu_7513UnicodeStringD1Ev(ptr noundef nonnull align 8 dereferenceable(64) %src) #5
  br label %return

ehcleanup17:                                      ; preds = %ehcleanup, %lpad
  %.pn.pn.pn = phi { ptr, i32 } [ %.pn, %ehcleanup ], [ %2, %lpad ]
  call void @_ZN6icu_7513UnicodeStringD1Ev(ptr noundef nonnull align 8 dereferenceable(64) %src) #5
  resume { ptr, i32 } %.pn.pn.pn

return:                                           ; preds = %entry, %lor.lhs.false, %cleanup
  %retval.1 = phi i32 [ %retval.0, %cleanup ], [ 0, %lor.lhs.false ], [ 0, %entry ]
  ret i32 %retval.1
}